; Function Attrs: inlinehint mustprogress nofree nosync nounwind willreturn memory(none) uwtable
define internal fastcc noundef double @_ZN8LightGBM6CommonL3PowIdEEdT_i(double noundef %0, i32 noundef %1) unnamed_addr #20 {
  %3 = icmp slt i32 %1, 0
  br i1 %3, label %tailrecurse._crit_edge, label %.lr.ph.preheader

.lr.ph.preheader:                                 ; preds = %2
  %4 = icmp eq i32 %1, 0
  br i1 %4, label %common.ret40, label %.lr.ph35

common.ret40:                                     ; preds = %.lr.ph.preheader, %tailrecurse.backedge, %19, %tailrecurse._crit_edge
  %common.ret40.op = phi double [ %7, %tailrecurse._crit_edge ], [ %22, %19 ], [ 1.000000e+00, %tailrecurse.backedge ], [ 1.000000e+00, %.lr.ph.preheader ]
  ret double %common.ret40.op

tailrecurse._crit_edge:                           ; preds = %2
  %5 = sub nsw i32 0, %1
  %6 = tail call fastcc noundef double @_ZN8LightGBM6CommonL3PowIdEEdT_i(double noundef %0, i32 noundef %5)
  %7 = fdiv double 1.000000e+00, %6
  br label %common.ret40

.lr.ph35:                                         ; preds = %.lr.ph.preheader, %tailrecurse.backedge
  %.tr2234 = phi double [ %.tr.be, %tailrecurse.backedge ], [ %0, %.lr.ph.preheader ]
  %.tr172333 = phi i32 [ %.tr17.be, %tailrecurse.backedge ], [ %1, %.lr.ph.preheader ]
  %8 = and i32 %.tr172333, 1
  %9 = icmp eq i32 %8, 0
  br i1 %9, label %10, label %13

10:                                               ; preds = %.lr.ph35
  %11 = lshr exact i32 %.tr172333, 1
  br label %tailrecurse.backedge

tailrecurse.backedge:                             ; preds = %10, %17
  %.tr22.pn = phi double [ %.tr2234, %10 ], [ %18, %17 ]
  %.tr17.be = phi i32 [ %11, %10 ], [ %15, %17 ]
  %.tr.be = fmul double %.tr2234, %.tr22.pn
  %12 = icmp eq i32 %.tr17.be, 0
  br i1 %12, label %common.ret40, label %.lr.ph35

13:                                               ; preds = %.lr.ph35
  %14 = urem i32 %.tr172333, 3
  %15 = udiv i32 %.tr172333, 3
  %16 = icmp eq i32 %14, 0
  br i1 %16, label %17, label %19

17:                                               ; preds = %13
  %18 = fmul double %.tr2234, %.tr2234
  br label %tailrecurse.backedge

19:                                               ; preds = %13
  %20 = add nsw i32 %.tr172333, -1
  %21 = tail call fastcc noundef double @_ZN8LightGBM6CommonL3PowIdEEdT_i(double noundef %.tr2234, i32 noundef %20)
  %22 = fmul double %.tr2234, %21
  br label %common.ret40
}